; ModuleID = 'source-C-CXX/12/1145.cpp'
source_filename = "source-C-CXX/12/1145.cpp"
target datalayout = "e-m:e-p270:32:32-p271:32:32-p272:64:64-i64:64-f80:128-n8:16:32:64-S128"
target triple = "x86_64-pc-linux-gnu"

%"class.std::ios_base::Init" = type { i8 }
%"class.std::basic_istream" = type { i32 (...)**, i64, %"class.std::basic_ios" }
%"class.std::basic_ios" = type { %"class.std::ios_base", %"class.std::basic_ostream"*, i8, i8, %"class.std::basic_streambuf"*, %"class.std::ctype"*, %"class.std::num_put"*, %"class.std::num_get"* }
%"class.std::ios_base" = type { i32 (...)**, i64, i64, i32, i32, i32, %"struct.std::ios_base::_Callback_list"*, %"struct.std::ios_base::_Words", [8 x %"struct.std::ios_base::_Words"], i32, %"struct.std::ios_base::_Words"*, %"class.std::locale" }
%"struct.std::ios_base::_Callback_list" = type { %"struct.std::ios_base::_Callback_list"*, void (i32, %"class.std::ios_base"*, i32)*, i32, i32 }
%"struct.std::ios_base::_Words" = type { i8*, i64 }
%"class.std::locale" = type { %"class.std::locale::_Impl"* }
%"class.std::locale::_Impl" = type { i32, %"class.std::locale::facet"**, i64, %"class.std::locale::facet"**, i8** }
%"class.std::locale::facet" = type <{ i32 (...)**, i32, [4 x i8] }>
%"class.std::basic_ostream" = type { i32 (...)**, %"class.std::basic_ios" }
%"class.std::basic_streambuf" = type { i32 (...)**, i8*, i8*, i8*, i8*, i8*, i8*, %"class.std::locale" }
%"class.std::ctype" = type <{ %"class.std::locale::facet.base", [4 x i8], %struct.__locale_struct*, i8, [7 x i8], i32*, i32*, i16*, i8, [256 x i8], [256 x i8], i8, [6 x i8] }>
%"class.std::locale::facet.base" = type <{ i32 (...)**, i32 }>
%struct.__locale_struct = type { [13 x %struct.__locale_data*], i16*, i32*, i32*, [13 x i8*] }
%struct.__locale_data = type opaque
%"class.std::num_put" = type { %"class.std::locale::facet.base", [4 x i8] }
%"class.std::num_get" = type { %"class.std::locale::facet.base", [4 x i8] }

@_ZStL8__ioinit = internal global %"class.std::ios_base::Init" zeroinitializer, align 1
@__dso_handle = external hidden global i8
@src = dso_local global [20000 x i32] zeroinitializer, align 16
@dst = dso_local local_unnamed_addr global [100 x i32] zeroinitializer, align 16
@_ZSt3cin = external global %"class.std::basic_istream", align 8
@_ZSt4cout = external global %"class.std::basic_ostream", align 8
@.str = private unnamed_addr constant [2 x i8] c" \00", align 1
@llvm.global_ctors = appending global [1 x { i32, void ()*, i8* }] [{ i32, void ()*, i8* } { i32 65535, void ()* @_GLOBAL__sub_I_1145.cpp, i8* null }]

declare void @_ZNSt8ios_base4InitC1Ev(%"class.std::ios_base::Init"* nonnull align 1 dereferenceable(1)) unnamed_addr #0

; Function Attrs: nounwind
declare void @_ZNSt8ios_base4InitD1Ev(%"class.std::ios_base::Init"* nonnull align 1 dereferenceable(1)) unnamed_addr #1

; Function Attrs: nofree nounwind
declare i32 @__cxa_atexit(void (i8*)*, i8*, i8*) local_unnamed_addr #2

; Function Attrs: mustprogress norecurse sspstrong uwtable
define dso_local i32 @main() local_unnamed_addr #3 {
  %1 = alloca i32, align 4
  %2 = bitcast i32* %1 to i8*
  call void @llvm.lifetime.start.p0i8(i64 4, i8* nonnull %2) #7
  %3 = call nonnull align 8 dereferenceable(16) %"class.std::basic_istream"* @_ZNSirsERi(%"class.std::basic_istream"* nonnull align 8 dereferenceable(16) @_ZSt3cin, i32* nonnull align 4 dereferenceable(4) %1)
  %4 = load i32, i32* %1, align 4, !tbaa !5
  %5 = icmp sgt i32 %4, 0
  br i1 %5, label %11, label %107

6:                                                ; preds = %11
  %7 = load i32, i32* getelementptr inbounds ([20000 x i32], [20000 x i32]* @src, i64 0, i64 0), align 16
  %8 = icmp sgt i32 %16, 0
  br i1 %8, label %9, label %107

9:                                                ; preds = %6
  %10 = zext i32 %16 to i64
  br label %25

11:                                               ; preds = %0, %11
  %12 = phi i64 [ %15, %11 ], [ 0, %0 ]
  %13 = getelementptr inbounds [20000 x i32], [20000 x i32]* @src, i64 0, i64 %12
  %14 = call nonnull align 8 dereferenceable(16) %"class.std::basic_istream"* @_ZNSirsERi(%"class.std::basic_istream"* nonnull align 8 dereferenceable(16) @_ZSt3cin, i32* nonnull align 4 dereferenceable(4) %13)
  %15 = add nuw nsw i64 %12, 1
  %16 = load i32, i32* %1, align 4, !tbaa !5
  %17 = sext i32 %16 to i64
  %18 = icmp slt i64 %15, %17
  br i1 %18, label %11, label %6, !llvm.loop !9

19:                                               ; preds = %92
  %20 = icmp sgt i32 %93, 0
  br i1 %20, label %21, label %107

21:                                               ; preds = %19
  %22 = add nsw i32 %93, -1
  %23 = zext i32 %22 to i64
  %24 = zext i32 %93 to i64
  br label %96

25:                                               ; preds = %9, %92
  %26 = phi i64 [ 0, %9 ], [ %94, %92 ]
  %27 = phi i32 [ 0, %9 ], [ %93, %92 ]
  %28 = icmp eq i32 %27, 0
  br i1 %28, label %91, label %29

29:                                               ; preds = %25
  %30 = icmp sgt i32 %27, 0
  br i1 %30, label %31, label %85

31:                                               ; preds = %29
  %32 = getelementptr inbounds [20000 x i32], [20000 x i32]* @src, i64 0, i64 %26
  %33 = load i32, i32* %32, align 4, !tbaa !5
  %34 = zext i32 %27 to i64
  %35 = add nsw i64 %34, -1
  %36 = and i64 %34, 3
  %37 = icmp ult i64 %35, 3
  br i1 %37, label %66, label %38

38:                                               ; preds = %31
  %39 = and i64 %34, 4294967292
  br label %40

40:                                               ; preds = %40, %38
  %41 = phi i64 [ 0, %38 ], [ %63, %40 ]
  %42 = phi i32 [ 1, %38 ], [ %62, %40 ]
  %43 = phi i64 [ %39, %38 ], [ %64, %40 ]
  %44 = getelementptr inbounds [100 x i32], [100 x i32]* @dst, i64 0, i64 %41
  %45 = load i32, i32* %44, align 16, !tbaa !5
  %46 = icmp eq i32 %45, %33
  %47 = or i64 %41, 1
  %48 = getelementptr inbounds [100 x i32], [100 x i32]* @dst, i64 0, i64 %47
  %49 = load i32, i32* %48, align 4, !tbaa !5
  %50 = icmp eq i32 %49, %33
  %51 = or i64 %41, 2
  %52 = getelementptr inbounds [100 x i32], [100 x i32]* @dst, i64 0, i64 %51
  %53 = load i32, i32* %52, align 8, !tbaa !5
  %54 = icmp eq i32 %53, %33
  %55 = or i64 %41, 3
  %56 = getelementptr inbounds [100 x i32], [100 x i32]* @dst, i64 0, i64 %55
  %57 = load i32, i32* %56, align 4, !tbaa !5
  %58 = icmp eq i32 %57, %33
  %59 = select i1 %58, i1 true, i1 %54
  %60 = select i1 %59, i1 true, i1 %50
  %61 = select i1 %60, i1 true, i1 %46
  %62 = select i1 %61, i32 0, i32 %42
  %63 = add nuw nsw i64 %41, 4
  %64 = add i64 %43, -4
  %65 = icmp eq i64 %64, 0
  br i1 %65, label %66, label %40, !llvm.loop !11

66:                                               ; preds = %40, %31
  %67 = phi i32 [ undef, %31 ], [ %62, %40 ]
  %68 = phi i64 [ 0, %31 ], [ %63, %40 ]
  %69 = phi i32 [ 1, %31 ], [ %62, %40 ]
  %70 = icmp eq i64 %36, 0
  br i1 %70, label %82, label %71

71:                                               ; preds = %66, %71
  %72 = phi i64 [ %79, %71 ], [ %68, %66 ]
  %73 = phi i32 [ %78, %71 ], [ %69, %66 ]
  %74 = phi i64 [ %80, %71 ], [ %36, %66 ]
  %75 = getelementptr inbounds [100 x i32], [100 x i32]* @dst, i64 0, i64 %72
  %76 = load i32, i32* %75, align 4, !tbaa !5
  %77 = icmp eq i32 %76, %33
  %78 = select i1 %77, i32 0, i32 %73
  %79 = add nuw nsw i64 %72, 1
  %80 = add i64 %74, -1
  %81 = icmp eq i64 %80, 0
  br i1 %81, label %82, label %71, !llvm.loop !12

82:                                               ; preds = %71, %66
  %83 = phi i32 [ %67, %66 ], [ %78, %71 ]
  %84 = icmp eq i32 %83, 1
  br i1 %84, label %85, label %92

85:                                               ; preds = %29, %82
  %86 = getelementptr inbounds [20000 x i32], [20000 x i32]* @src, i64 0, i64 %26
  %87 = load i32, i32* %86, align 4, !tbaa !5
  %88 = sext i32 %27 to i64
  %89 = getelementptr inbounds [100 x i32], [100 x i32]* @dst, i64 0, i64 %88
  store i32 %87, i32* %89, align 4, !tbaa !5
  %90 = add nsw i32 %27, 1
  br label %92

91:                                               ; preds = %25
  store i32 %7, i32* getelementptr inbounds ([100 x i32], [100 x i32]* @dst, i64 0, i64 0), align 16, !tbaa !5
  br label %92

92:                                               ; preds = %91, %85, %82
  %93 = phi i32 [ %90, %85 ], [ %27, %82 ], [ 1, %91 ]
  %94 = add nuw nsw i64 %26, 1
  %95 = icmp eq i64 %94, %10
  br i1 %95, label %19, label %25, !llvm.loop !14

96:                                               ; preds = %21, %104
  %97 = phi i64 [ 0, %21 ], [ %105, %104 ]
  %98 = getelementptr inbounds [100 x i32], [100 x i32]* @dst, i64 0, i64 %97
  %99 = load i32, i32* %98, align 4, !tbaa !5
  %100 = call nonnull align 8 dereferenceable(8) %"class.std::basic_ostream"* @_ZNSolsEi(%"class.std::basic_ostream"* nonnull align 8 dereferenceable(8) @_ZSt4cout, i32 %99)
  %101 = icmp ult i64 %97, %23
  br i1 %101, label %102, label %104

102:                                              ; preds = %96
  %103 = call nonnull align 8 dereferenceable(8) %"class.std::basic_ostream"* @_ZSt16__ostream_insertIcSt11char_traitsIcEERSt13basic_ostreamIT_T0_ES6_PKS3_l(%"class.std::basic_ostream"* nonnull align 8 dereferenceable(8) @_ZSt4cout, i8* nonnull getelementptr inbounds ([2 x i8], [2 x i8]* @.str, i64 0, i64 0), i64 1)
  br label %104

104:                                              ; preds = %96, %102
  %105 = add nuw nsw i64 %97, 1
  %106 = icmp eq i64 %105, %24
  br i1 %106, label %107, label %96, !llvm.loop !15

107:                                              ; preds = %104, %0, %6, %19
  %108 = load i8*, i8** bitcast (%"class.std::basic_ostream"* @_ZSt4cout to i8**), align 8, !tbaa !16
  %109 = getelementptr i8, i8* %108, i64 -24
  %110 = bitcast i8* %109 to i64*
  %111 = load i64, i64* %110, align 8
  %112 = add nsw i64 %111, 240
  %113 = getelementptr inbounds i8, i8* bitcast (%"class.std::basic_ostream"* @_ZSt4cout to i8*), i64 %112
  %114 = bitcast i8* %113 to %"class.std::ctype"**
  %115 = load %"class.std::ctype"*, %"class.std::ctype"** %114, align 8, !tbaa !18
  %116 = icmp eq %"class.std::ctype"* %115, null
  br i1 %116, label %117, label %118

117:                                              ; preds = %107
  call void @_ZSt16__throw_bad_castv() #8
  unreachable

118:                                              ; preds = %107
  %119 = getelementptr inbounds %"class.std::ctype", %"class.std::ctype"* %115, i64 0, i32 8
  %120 = load i8, i8* %119, align 8, !tbaa !22
  %121 = icmp eq i8 %120, 0
  br i1 %121, label %125, label %122

122:                                              ; preds = %118
  %123 = getelementptr inbounds %"class.std::ctype", %"class.std::ctype"* %115, i64 0, i32 9, i64 10
  %124 = load i8, i8* %123, align 1, !tbaa !24
  br label %131

125:                                              ; preds = %118
  call void @_ZNKSt5ctypeIcE13_M_widen_initEv(%"class.std::ctype"* nonnull align 8 dereferenceable(570) %115)
  %126 = bitcast %"class.std::ctype"* %115 to i8 (%"class.std::ctype"*, i8)***
  %127 = load i8 (%"class.std::ctype"*, i8)**, i8 (%"class.std::ctype"*, i8)*** %126, align 8, !tbaa !16
  %128 = getelementptr inbounds i8 (%"class.std::ctype"*, i8)*, i8 (%"class.std::ctype"*, i8)** %127, i64 6
  %129 = load i8 (%"class.std::ctype"*, i8)*, i8 (%"class.std::ctype"*, i8)** %128, align 8
  %130 = call signext i8 %129(%"class.std::ctype"* nonnull align 8 dereferenceable(570) %115, i8 signext 10)
  br label %131

131:                                              ; preds = %122, %125
  %132 = phi i8 [ %124, %122 ], [ %130, %125 ]
  %133 = call nonnull align 8 dereferenceable(8) %"class.std::basic_ostream"* @_ZNSo3putEc(%"class.std::basic_ostream"* nonnull align 8 dereferenceable(8) @_ZSt4cout, i8 signext %132)
  %134 = call nonnull align 8 dereferenceable(8) %"class.std::basic_ostream"* @_ZNSo5flushEv(%"class.std::basic_ostream"* nonnull align 8 dereferenceable(8) %133)
  call void @llvm.lifetime.end.p0i8(i64 4, i8* nonnull %2) #7
  ret i32 0
}

; Function Attrs: argmemonly mustprogress nofree nosync nounwind willreturn
declare void @llvm.lifetime.start.p0i8(i64 immarg, i8* nocapture) #4

declare nonnull align 8 dereferenceable(16) %"class.std::basic_istream"* @_ZNSirsERi(%"class.std::basic_istream"* nonnull align 8 dereferenceable(16), i32* nonnull align 4 dereferenceable(4)) local_unnamed_addr #0

declare nonnull align 8 dereferenceable(8) %"class.std::basic_ostream"* @_ZNSolsEi(%"class.std::basic_ostream"* nonnull align 8 dereferenceable(8), i32) local_unnamed_addr #0

; Function Attrs: argmemonly mustprogress nofree nosync nounwind willreturn
declare void @llvm.lifetime.end.p0i8(i64 immarg, i8* nocapture) #4

declare nonnull align 8 dereferenceable(8) %"class.std::basic_ostream"* @_ZSt16__ostream_insertIcSt11char_traitsIcEERSt13basic_ostreamIT_T0_ES6_PKS3_l(%"class.std::basic_ostream"* nonnull align 8 dereferenceable(8), i8*, i64) local_unnamed_addr #0

declare nonnull align 8 dereferenceable(8) %"class.std::basic_ostream"* @_ZNSo3putEc(%"class.std::basic_ostream"* nonnull align 8 dereferenceable(8), i8 signext) local_unnamed_addr #0

declare nonnull align 8 dereferenceable(8) %"class.std::basic_ostream"* @_ZNSo5flushEv(%"class.std::basic_ostream"* nonnull align 8 dereferenceable(8)) local_unnamed_addr #0

; Function Attrs: noreturn
declare void @_ZSt16__throw_bad_castv() local_unnamed_addr #5

declare void @_ZNKSt5ctypeIcE13_M_widen_initEv(%"class.std::ctype"* nonnull align 8 dereferenceable(570)) local_unnamed_addr #0

; Function Attrs: sspstrong uwtable
define internal void @_GLOBAL__sub_I_1145.cpp() #6 section ".text.startup" {
  tail call void @_ZNSt8ios_base4InitC1Ev(%"class.std::ios_base::Init"* nonnull align 1 dereferenceable(1) @_ZStL8__ioinit)
  %1 = tail call i32 @__cxa_atexit(void (i8*)* bitcast (void (%"class.std::ios_base::Init"*)* @_ZNSt8ios_base4InitD1Ev to void (i8*)*), i8* getelementptr inbounds (%"class.std::ios_base::Init", %"class.std::ios_base::Init"* @_ZStL8__ioinit, i64 0, i32 0), i8* nonnull @__dso_handle) #7
  ret void
}


!llvm.module.flags = !{!0, !1, !2, !3}
!llvm.ident = !{!4}

!0 = !{i32 1, !"wchar_size", i32 4}
!1 = !{i32 7, !"PIC Level", i32 2}
!2 = !{i32 7, !"PIE Level", i32 2}
!3 = !{i32 7, !"uwtable", i32 1}
!4 = !{!"clang version 13.0.0"}
!5 = !{!6, !6, i64 0}
!6 = !{!"int", !7, i64 0}
!7 = !{!"omnipotent char", !8, i64 0}
!8 = !{!"Simple C++ TBAA"}
!9 = distinct !{!9, !10}
!10 = !{!"llvm.loop.mustprogress"}
!11 = distinct !{!11, !10}
!12 = distinct !{!12, !13}
!13 = !{!"llvm.loop.unroll.disable"}
!14 = distinct !{!14, !10}
!15 = distinct !{!15, !10}
!16 = !{!17, !17, i64 0}
!17 = !{!"vtable pointer", !8, i64 0}
!18 = !{!19, !20, i64 240}
!19 = !{!"_ZTSSt9basic_iosIcSt11char_traitsIcEE", !20, i64 216, !7, i64 224, !21, i64 225, !20, i64 232, !20, i64 240, !20, i64 248, !20, i64 256}
!20 = !{!"any pointer", !7, i64 0}
!21 = !{!"bool", !7, i64 0}
!22 = !{!23, !7, i64 56}
!23 = !{!"_ZTSSt5ctypeIcE", !20, i64 16, !21, i64 24, !20, i64 32, !20, i64 40, !20, i64 48, !7, i64 56, !7, i64 57, !7, i64 313, !7, i64 569}
!24 = !{!7, !7, i64 0}
